; Function Attrs: mustprogress uwtable
define noundef range(i32 0, 2) i32 @_ZN6LibRaw10nikon_e995Ev(ptr noundef nonnull readonly align 8 captures(none) dereferenceable(767680) %0) local_unnamed_addr #0 align 2 {
  %2 = alloca [256 x i32], align 16
  call void @llvm.lifetime.start.p0(i64 1024, ptr nonnull %2) #13
  call void @llvm.memset.p0.i64(ptr noundef nonnull align 16 dereferenceable(1024) %2, i8 0, i64 1024, i1 false)
  %3 = getelementptr inbounds nuw i8, ptr %0, i64 381416
  %4 = load ptr, ptr %3, align 8, !tbaa !6
  %5 = load ptr, ptr %4, align 8, !tbaa !71
  %6 = getelementptr inbounds nuw i8, ptr %5, i64 32
  %7 = load ptr, ptr %6, align 8
  %8 = tail call noundef i32 %7(ptr noundef nonnull align 8 dereferenceable(8) %4, i64 noundef -2000, i32 noundef 2)
  br label %9

9:                                                ; preds = %1, %9
  %.07 = phi i32 [ 0, %1 ], [ %19, %9 ]
  %10 = load ptr, ptr %3, align 8, !tbaa !6
  %11 = load ptr, ptr %10, align 8, !tbaa !71
  %12 = getelementptr inbounds nuw i8, ptr %11, i64 56
  %13 = load ptr, ptr %12, align 8
  %14 = tail call noundef i32 %13(ptr noundef nonnull align 8 dereferenceable(8) %10)
  %15 = sext i32 %14 to i64
  %16 = getelementptr inbounds [256 x i32], ptr %2, i64 0, i64 %15
  %17 = load i32, ptr %16, align 4, !tbaa !128
  %18 = add nsw i32 %17, 1
  store i32 %18, ptr %16, align 4, !tbaa !128
  %19 = add nuw nsw i32 %.07, 1
  %exitcond.not = icmp eq i32 %19, 2000
  br i1 %exitcond.not, label %.preheader, label %9, !llvm.loop !137

20:                                               ; preds = %.preheader
  %indvars.iv.next = add nuw nsw i64 %indvars.iv, 1
  %exitcond10.not = icmp eq i64 %indvars.iv.next, 4
  br i1 %exitcond10.not, label %27, label %.preheader, !llvm.loop !138

.preheader:                                       ; preds = %9, %20
  %indvars.iv = phi i64 [ %indvars.iv.next, %20 ], [ 0, %9 ]
  %21 = getelementptr inbounds nuw [4 x i8], ptr @__const._ZN6LibRaw10nikon_e995Ev.often, i64 0, i64 %indvars.iv
  %22 = load i8, ptr %21, align 1, !tbaa !75
  %23 = zext i8 %22 to i64
  %24 = getelementptr inbounds nuw [256 x i32], ptr %2, i64 0, i64 %23
  %25 = load i32, ptr %24, align 4, !tbaa !128
  %26 = icmp slt i32 %25, 200
  br i1 %26, label %27, label %20

27:                                               ; preds = %20, %.preheader
  %.06 = phi i32 [ 0, %.preheader ], [ 1, %20 ]
  call void @llvm.lifetime.end.p0(i64 1024, ptr nonnull %2) #13
  ret i32 %.06
}